; Function Attrs: mustprogress uwtable
define internal void @"_ZNSt17_Function_handlerIFvfEZN4nori10NoriScreenC1ERKNS1_10ImageBlockEE3$_0E9_M_invokeERKSt9_Any_dataOf"(ptr nocapture noundef nonnull readonly align 8 dereferenceable(16) %0, ptr nocapture noundef nonnull readonly align 4 dereferenceable(4) %1) #3 align 2 {
  %.val = load ptr, ptr %0, align 8
  %.val2 = load float, ptr %1, align 4
  %3 = fadd float %.val2, -5.000000e-01
  %4 = fmul float %3, 2.000000e+01
  %exp2f.i.i.i = tail call float @exp2f(float %4)
  %5 = getelementptr inbounds i8, ptr %.val, i64 416
  store float %exp2f.i.i.i, ptr %5, align 8
  ret void
}